; ModuleID = '33/3189.c'
source_filename = "33/3189.c"
target datalayout = "e-m:e-p270:32:32-p271:32:32-p272:64:64-i64:64-f80:128-n8:16:32:64-S128"
target triple = "x86_64-pc-linux-gnu"

@.str = private unnamed_addr constant [3 x i8] c"%d\00", align 1
@.str.1 = private unnamed_addr constant [3 x i8] c"%s\00", align 1
@.str.2 = private unnamed_addr constant [4 x i8] c"%s\0A\00", align 1

; Function Attrs: noinline nounwind uwtable
define dso_local i32 @main() #0 {
  %1 = alloca i32, align 4
  %2 = alloca i32, align 4
  %3 = alloca i32, align 4
  %4 = alloca i32, align 4
  %5 = alloca i32, align 4
  %6 = alloca [300 x i8], align 16
  store i32 0, i32* %1, align 4
  %7 = call i32 (i8*, ...) @__isoc99_scanf(i8* getelementptr inbounds ([3 x i8], [3 x i8]* @.str, i64 0, i64 0), i32* %4)
  store i32 0, i32* %2, align 4
  br label %8

8:                                                ; preds = %95, %0
  %9 = load i32, i32* %2, align 4
  %10 = load i32, i32* %4, align 4
  %11 = icmp slt i32 %9, %10
  br i1 %11, label %12, label %98

12:                                               ; preds = %8
  %13 = call i32 (i8*, ...) @__isoc99_scanf(i8* getelementptr inbounds ([3 x i8], [3 x i8]* @.str.1, i64 0, i64 0), [300 x i8]* %6)
  %14 = getelementptr inbounds [300 x i8], [300 x i8]* %6, i64 0, i64 0
  %15 = call i64 @strlen(i8* %14) #3
  %16 = trunc i64 %15 to i32
  store i32 %16, i32* %5, align 4
  store i32 0, i32* %3, align 4
  br label %17

17:                                               ; preds = %89, %12
  %18 = load i32, i32* %3, align 4
  %19 = load i32, i32* %5, align 4
  %20 = icmp slt i32 %18, %19
  br i1 %20, label %21, label %92

21:                                               ; preds = %17
  %22 = load i32, i32* %3, align 4
  %23 = sext i32 %22 to i64
  %24 = getelementptr inbounds [300 x i8], [300 x i8]* %6, i64 0, i64 %23
  %25 = load i8, i8* %24, align 1
  %26 = sext i8 %25 to i32
  %27 = icmp eq i32 %26, 65
  br i1 %27, label %28, label %39

28:                                               ; preds = %21
  %29 = load i32, i32* %3, align 4
  %30 = sext i32 %29 to i64
  %31 = getelementptr inbounds [300 x i8], [300 x i8]* %6, i64 0, i64 %30
  %32 = load i8, i8* %31, align 1
  %33 = sext i8 %32 to i32
  %34 = add nsw i32 %33, 19
  %35 = trunc i32 %34 to i8
  %36 = load i32, i32* %3, align 4
  %37 = sext i32 %36 to i64
  %38 = getelementptr inbounds [300 x i8], [300 x i8]* %6, i64 0, i64 %37
  store i8 %35, i8* %38, align 1
  br label %88

39:                                               ; preds = %21
  %40 = load i32, i32* %3, align 4
  %41 = sext i32 %40 to i64
  %42 = getelementptr inbounds [300 x i8], [300 x i8]* %6, i64 0, i64 %41
  %43 = load i8, i8* %42, align 1
  %44 = sext i8 %43 to i32
  %45 = icmp eq i32 %44, 84
  br i1 %45, label %46, label %57

46:                                               ; preds = %39
  %47 = load i32, i32* %3, align 4
  %48 = sext i32 %47 to i64
  %49 = getelementptr inbounds [300 x i8], [300 x i8]* %6, i64 0, i64 %48
  %50 = load i8, i8* %49, align 1
  %51 = sext i8 %50 to i32
  %52 = sub nsw i32 %51, 19
  %53 = trunc i32 %52 to i8
  %54 = load i32, i32* %3, align 4
  %55 = sext i32 %54 to i64
  %56 = getelementptr inbounds [300 x i8], [300 x i8]* %6, i64 0, i64 %55
  store i8 %53, i8* %56, align 1
  br label %87

57:                                               ; preds = %39
  %58 = load i32, i32* %3, align 4
  %59 = sext i32 %58 to i64
  %60 = getelementptr inbounds [300 x i8], [300 x i8]* %6, i64 0, i64 %59
  %61 = load i8, i8* %60, align 1
  %62 = sext i8 %61 to i32
  %63 = icmp eq i32 %62, 67
  br i1 %63, label %64, label %75

64:                                               ; preds = %57
  %65 = load i32, i32* %3, align 4
  %66 = sext i32 %65 to i64
  %67 = getelementptr inbounds [300 x i8], [300 x i8]* %6, i64 0, i64 %66
  %68 = load i8, i8* %67, align 1
  %69 = sext i8 %68 to i32
  %70 = add nsw i32 %69, 4
  %71 = trunc i32 %70 to i8
  %72 = load i32, i32* %3, align 4
  %73 = sext i32 %72 to i64
  %74 = getelementptr inbounds [300 x i8], [300 x i8]* %6, i64 0, i64 %73
  store i8 %71, i8* %74, align 1
  br label %86

75:                                               ; preds = %57
  %76 = load i32, i32* %3, align 4
  %77 = sext i32 %76 to i64
  %78 = getelementptr inbounds [300 x i8], [300 x i8]* %6, i64 0, i64 %77
  %79 = load i8, i8* %78, align 1
  %80 = sext i8 %79 to i32
  %81 = sub nsw i32 %80, 4
  %82 = trunc i32 %81 to i8
  %83 = load i32, i32* %3, align 4
  %84 = sext i32 %83 to i64
  %85 = getelementptr inbounds [300 x i8], [300 x i8]* %6, i64 0, i64 %84
  store i8 %82, i8* %85, align 1
  br label %86

86:                                               ; preds = %75, %64
  br label %87

87:                                               ; preds = %86, %46
  br label %88

88:                                               ; preds = %87, %28
  br label %89

89:                                               ; preds = %88
  %90 = load i32, i32* %3, align 4
  %91 = add nsw i32 %90, 1
  store i32 %91, i32* %3, align 4
  br label %17

92:                                               ; preds = %17
  %93 = getelementptr inbounds [300 x i8], [300 x i8]* %6, i64 0, i64 0
  %94 = call i32 (i8*, ...) @printf(i8* getelementptr inbounds ([4 x i8], [4 x i8]* @.str.2, i64 0, i64 0), i8* %93)
  br label %95

95:                                               ; preds = %92
  %96 = load i32, i32* %2, align 4
  %97 = add nsw i32 %96, 1
  store i32 %97, i32* %2, align 4
  br label %8

98:                                               ; preds = %8
  ret i32 0
}

declare dso_local i32 @__isoc99_scanf(i8*, ...) #1

; Function Attrs: nounwind readonly
declare dso_local i64 @strlen(i8*) #2

declare dso_local i32 @printf(i8*, ...) #1


!llvm.module.flags = !{!0}
!llvm.ident = !{!1}

!0 = !{i32 1, !"wchar_size", i32 4}
!1 = !{!"clang version 10.0.0-4ubuntu1 "}
