; ModuleID = 'source-C-CXX/32/3189.c'
source_filename = "source-C-CXX/32/3189.c"
target datalayout = "e-m:e-p270:32:32-p271:32:32-p272:64:64-i64:64-f80:128-n8:16:32:64-S128"
target triple = "x86_64-pc-linux-gnu"

@.str = private unnamed_addr constant [3 x i8] c"%d\00", align 1
@.str.1 = private unnamed_addr constant [3 x i8] c"%s\00", align 1

; Function Attrs: nofree nounwind sspstrong uwtable
define dso_local i32 @main() local_unnamed_addr #0 {
  %1 = alloca i32, align 4
  %2 = alloca [300 x i8], align 16
  %3 = bitcast i32* %1 to i8*
  call void @llvm.lifetime.start.p0i8(i64 4, i8* nonnull %3) #5
  %4 = getelementptr inbounds [300 x i8], [300 x i8]* %2, i64 0, i64 0
  call void @llvm.lifetime.start.p0i8(i64 300, i8* nonnull %4) #5
  %5 = call i32 (i8*, ...) @__isoc99_scanf(i8* getelementptr inbounds ([3 x i8], [3 x i8]* @.str, i64 0, i64 0), i32* nonnull %1)
  %6 = load i32, i32* %1, align 4, !tbaa !5
  %7 = icmp sgt i32 %6, 0
  br i1 %7, label %8, label %51

8:                                                ; preds = %0, %46
  %9 = phi i32 [ %48, %46 ], [ 0, %0 ]
  %10 = call i32 (i8*, ...) @__isoc99_scanf(i8* getelementptr inbounds ([3 x i8], [3 x i8]* @.str.1, i64 0, i64 0), [300 x i8]* nonnull %2)
  %11 = call i64 @strlen(i8* noundef nonnull %4) #6
  %12 = trunc i64 %11 to i32
  %13 = icmp sgt i32 %12, 0
  br i1 %13, label %14, label %46

14:                                               ; preds = %8
  %15 = and i64 %11, 4294967295
  %16 = and i64 %11, 1
  %17 = icmp eq i64 %15, 1
  br i1 %17, label %34, label %18

18:                                               ; preds = %14
  %19 = sub nsw i64 %15, %16
  br label %20

20:                                               ; preds = %56, %18
  %21 = phi i64 [ 0, %18 ], [ %58, %56 ]
  %22 = phi i64 [ %19, %18 ], [ %59, %56 ]
  %23 = getelementptr inbounds [300 x i8], [300 x i8]* %2, i64 0, i64 %21
  %24 = load i8, i8* %23, align 2, !tbaa !9
  switch i8 %24, label %27 [
    i8 65, label %29
    i8 84, label %25
    i8 67, label %26
  ]

25:                                               ; preds = %20
  br label %29

26:                                               ; preds = %20
  br label %29

27:                                               ; preds = %20
  %28 = add i8 %24, -4
  br label %29

29:                                               ; preds = %20, %26, %27, %25
  %30 = phi i8 [ 71, %26 ], [ %28, %27 ], [ 65, %25 ], [ 84, %20 ]
  store i8 %30, i8* %23, align 2, !tbaa !9
  %31 = or i64 %21, 1
  %32 = getelementptr inbounds [300 x i8], [300 x i8]* %2, i64 0, i64 %31
  %33 = load i8, i8* %32, align 1, !tbaa !9
  switch i8 %33, label %54 [
    i8 65, label %56
    i8 84, label %53
    i8 67, label %52
  ]

34:                                               ; preds = %56, %14
  %35 = phi i64 [ 0, %14 ], [ %58, %56 ]
  %36 = icmp eq i64 %16, 0
  br i1 %36, label %46, label %37

37:                                               ; preds = %34
  %38 = getelementptr inbounds [300 x i8], [300 x i8]* %2, i64 0, i64 %35
  %39 = load i8, i8* %38, align 1, !tbaa !9
  switch i8 %39, label %42 [
    i8 65, label %44
    i8 84, label %41
    i8 67, label %40
  ]

40:                                               ; preds = %37
  br label %44

41:                                               ; preds = %37
  br label %44

42:                                               ; preds = %37
  %43 = add i8 %39, -4
  br label %44

44:                                               ; preds = %42, %41, %40, %37
  %45 = phi i8 [ 71, %40 ], [ %43, %42 ], [ 65, %41 ], [ 84, %37 ]
  store i8 %45, i8* %38, align 1, !tbaa !9
  br label %46

46:                                               ; preds = %44, %34, %8
  %47 = call i32 @puts(i8* nonnull %4)
  %48 = add nuw nsw i32 %9, 1
  %49 = load i32, i32* %1, align 4, !tbaa !5
  %50 = icmp slt i32 %48, %49
  br i1 %50, label %8, label %51, !llvm.loop !10

51:                                               ; preds = %46, %0
  call void @llvm.lifetime.end.p0i8(i64 300, i8* nonnull %4) #5
  call void @llvm.lifetime.end.p0i8(i64 4, i8* nonnull %3) #5
  ret i32 0

52:                                               ; preds = %29
  br label %56

53:                                               ; preds = %29
  br label %56

54:                                               ; preds = %29
  %55 = add i8 %33, -4
  br label %56

56:                                               ; preds = %54, %53, %52, %29
  %57 = phi i8 [ 71, %52 ], [ %55, %54 ], [ 65, %53 ], [ 84, %29 ]
  store i8 %57, i8* %32, align 1, !tbaa !9
  %58 = add nuw nsw i64 %21, 2
  %59 = add i64 %22, -2
  %60 = icmp eq i64 %59, 0
  br i1 %60, label %34, label %20, !llvm.loop !12
}

; Function Attrs: argmemonly mustprogress nofree nosync nounwind willreturn
declare void @llvm.lifetime.start.p0i8(i64 immarg, i8* nocapture) #1

; Function Attrs: nofree nounwind
declare noundef i32 @__isoc99_scanf(i8* nocapture noundef readonly, ...) local_unnamed_addr #2

; Function Attrs: argmemonly mustprogress nofree nounwind readonly willreturn
declare i64 @strlen(i8* nocapture) local_unnamed_addr #3

; Function Attrs: argmemonly mustprogress nofree nosync nounwind willreturn
declare void @llvm.lifetime.end.p0i8(i64 immarg, i8* nocapture) #1

; Function Attrs: nofree nounwind
declare noundef i32 @puts(i8* nocapture noundef readonly) local_unnamed_addr #4


!llvm.module.flags = !{!0, !1, !2, !3}
!llvm.ident = !{!4}

!0 = !{i32 1, !"wchar_size", i32 4}
!1 = !{i32 7, !"PIC Level", i32 2}
!2 = !{i32 7, !"PIE Level", i32 2}
!3 = !{i32 7, !"uwtable", i32 1}
!4 = !{!"clang version 13.0.0"}
!5 = !{!6, !6, i64 0}
!6 = !{!"int", !7, i64 0}
!7 = !{!"omnipotent char", !8, i64 0}
!8 = !{!"Simple C/C++ TBAA"}
!9 = !{!7, !7, i64 0}
!10 = distinct !{!10, !11}
!11 = !{!"llvm.loop.mustprogress"}
!12 = distinct !{!12, !11}
